target datalayout = "e-m:e-p270:32:32-p271:32:32-p272:64:64-i64:64-i128:128-f80:128-n8:16:32:64-S128"
target triple = "x86_64-pc-linux-gnu"

%"class.llvm::StringRef" = type { ptr, i64 }
%"class.std::vector.33" = type { %"struct.std::_Vector_base.34" }
%"struct.std::_Vector_base.34" = type { %"struct.std::_Vector_base<llvm::StringRef, std::allocator<llvm::StringRef>>::_Vector_impl" }
%"struct.std::_Vector_base<llvm::StringRef, std::allocator<llvm::StringRef>>::_Vector_impl" = type { %"struct.std::_Vector_base<llvm::StringRef, std::allocator<llvm::StringRef>>::_Vector_impl_data" }
%"struct.std::_Vector_base<llvm::StringRef, std::allocator<llvm::StringRef>>::_Vector_impl_data" = type { ptr, ptr, ptr }
%"class.llvm::SmallVectorBase.145" = type { ptr, i64, i64 }
%"class.llvm::SmallVectorImpl.209" = type { %"class.llvm::SmallVectorTemplateBase.210" }
%"class.llvm::SmallVectorTemplateBase.210" = type { %"class.llvm::SmallVectorTemplateCommon.211" }
%"class.llvm::SmallVectorTemplateCommon.211" = type { %"class.llvm::SmallVectorBase.145" }
%"class.llvm::ArrayRef.284" = type { ptr, i64 }
%"class.llvm::lto::InputFile" = type { %"class.std::vector.285", %"class.llvm::SmallVector.290", %"class.std::vector.292", %"class.std::vector.297", %"class.llvm::StringRef", %"class.llvm::StringRef", %"class.llvm::StringRef", %"class.std::vector.33", %"class.std::vector.302" }
%"class.std::vector.285" = type { %"struct.std::_Vector_base.286" }
%"struct.std::_Vector_base.286" = type { %"struct.std::_Vector_base<llvm::BitcodeModule, std::allocator<llvm::BitcodeModule>>::_Vector_impl" }
%"struct.std::_Vector_base<llvm::BitcodeModule, std::allocator<llvm::BitcodeModule>>::_Vector_impl" = type { %"struct.std::_Vector_base<llvm::BitcodeModule, std::allocator<llvm::BitcodeModule>>::_Vector_impl_data" }
%"struct.std::_Vector_base<llvm::BitcodeModule, std::allocator<llvm::BitcodeModule>>::_Vector_impl_data" = type { ptr, ptr, ptr }
%"class.llvm::SmallVector.290" = type { %"class.llvm::SmallVectorImpl.209" }
%"class.std::vector.292" = type { %"struct.std::_Vector_base.293" }
%"struct.std::_Vector_base.293" = type { %"struct.std::_Vector_base<llvm::lto::InputFile::Symbol, std::allocator<llvm::lto::InputFile::Symbol>>::_Vector_impl" }
%"struct.std::_Vector_base<llvm::lto::InputFile::Symbol, std::allocator<llvm::lto::InputFile::Symbol>>::_Vector_impl" = type { %"struct.std::_Vector_base<llvm::lto::InputFile::Symbol, std::allocator<llvm::lto::InputFile::Symbol>>::_Vector_impl_data" }
%"struct.std::_Vector_base<llvm::lto::InputFile::Symbol, std::allocator<llvm::lto::InputFile::Symbol>>::_Vector_impl_data" = type { ptr, ptr, ptr }
%"class.std::vector.297" = type { %"struct.std::_Vector_base.298" }
%"struct.std::_Vector_base.298" = type { %"struct.std::_Vector_base<std::pair<unsigned long, unsigned long>, std::allocator<std::pair<unsigned long, unsigned long>>>::_Vector_impl" }
%"struct.std::_Vector_base<std::pair<unsigned long, unsigned long>, std::allocator<std::pair<unsigned long, unsigned long>>>::_Vector_impl" = type { %"struct.std::_Vector_base<std::pair<unsigned long, unsigned long>, std::allocator<std::pair<unsigned long, unsigned long>>>::_Vector_impl_data" }
%"struct.std::_Vector_base<std::pair<unsigned long, unsigned long>, std::allocator<std::pair<unsigned long, unsigned long>>>::_Vector_impl_data" = type { ptr, ptr, ptr }
%"class.std::vector.302" = type { %"struct.std::_Vector_base.303" }
%"struct.std::_Vector_base.303" = type { %"struct.std::_Vector_base<std::pair<llvm::StringRef, llvm::Comdat::SelectionKind>, std::allocator<std::pair<llvm::StringRef, llvm::Comdat::SelectionKind>>>::_Vector_impl" }
%"struct.std::_Vector_base<std::pair<llvm::StringRef, llvm::Comdat::SelectionKind>, std::allocator<std::pair<llvm::StringRef, llvm::Comdat::SelectionKind>>>::_Vector_impl" = type { %"struct.std::_Vector_base<std::pair<llvm::StringRef, llvm::Comdat::SelectionKind>, std::allocator<std::pair<llvm::StringRef, llvm::Comdat::SelectionKind>>>::_Vector_impl_data" }
%"struct.std::_Vector_base<std::pair<llvm::StringRef, llvm::Comdat::SelectionKind>, std::allocator<std::pair<llvm::StringRef, llvm::Comdat::SelectionKind>>>::_Vector_impl_data" = type { ptr, ptr, ptr }

; Function Attrs: mustprogress nounwind uwtable
define linkonce_odr hidden noundef ptr @_ZNKSt6vectorIN4llvm9StringRefESaIS1_EE11_M_data_ptrIS1_EEPT_S6_(ptr noundef nonnull align 8 dereferenceable(24) %0, ptr noundef %1) #0 comdat align 2 {
  %3 = alloca ptr, align 8
  %4 = alloca ptr, align 8
  store ptr %0, ptr %3, align 8
  store ptr %1, ptr %4, align 8
  %5 = load ptr, ptr %4, align 8
  ret ptr %5
}

; Function Attrs: mustprogress nounwind uwtable
define linkonce_odr hidden noundef i64 @_ZNKSt6vectorIN4llvm9StringRefESaIS1_EE4sizeEv(ptr noundef nonnull align 8 dereferenceable(24) %0) #0 comdat align 2 {
  %2 = alloca ptr, align 8
  store ptr %0, ptr %2, align 8
  %3 = load ptr, ptr %2, align 8
  %4 = getelementptr inbounds nuw %"struct.std::_Vector_base.34", ptr %3, i32 0, i32 0
  %5 = getelementptr inbounds nuw %"struct.std::_Vector_base<llvm::StringRef, std::allocator<llvm::StringRef>>::_Vector_impl_data", ptr %4, i32 0, i32 1
  %6 = load ptr, ptr %5, align 8
  %7 = getelementptr inbounds nuw %"struct.std::_Vector_base.34", ptr %3, i32 0, i32 0
  %8 = getelementptr inbounds nuw %"struct.std::_Vector_base<llvm::StringRef, std::allocator<llvm::StringRef>>::_Vector_impl_data", ptr %7, i32 0, i32 0
  %9 = load ptr, ptr %8, align 8
  %10 = ptrtoint ptr %6 to i64
  %11 = ptrtoint ptr %9 to i64
  %12 = sub i64 %10, %11
  %13 = sdiv exact i64 %12, 16
  ret i64 %13
}

; Function Attrs: mustprogress nounwind uwtable
define linkonce_odr hidden noundef ptr @_ZNKSt6vectorIN4llvm9StringRefESaIS1_EE4dataEv(ptr noundef nonnull align 8 dereferenceable(24) %0) #0 comdat align 2 {
  %2 = alloca ptr, align 8
  store ptr %0, ptr %2, align 8
  %3 = load ptr, ptr %2, align 8
  %4 = getelementptr inbounds nuw %"struct.std::_Vector_base.34", ptr %3, i32 0, i32 0
  %5 = getelementptr inbounds nuw %"struct.std::_Vector_base<llvm::StringRef, std::allocator<llvm::StringRef>>::_Vector_impl_data", ptr %4, i32 0, i32 0
  %6 = load ptr, ptr %5, align 8
  %7 = call noundef ptr @_ZNKSt6vectorIN4llvm9StringRefESaIS1_EE11_M_data_ptrIS1_EEPT_S6_(ptr noundef nonnull align 8 dereferenceable(24) %3, ptr noundef %6) #12
  ret ptr %7
}

; Function Attrs: mustprogress nounwind uwtable
define linkonce_odr hidden void @_ZN4llvm8ArrayRefINS_9StringRefEEC2ISaIS1_EEERKSt6vectorIS1_T_E(ptr noundef nonnull align 8 dereferenceable(16) %0, ptr noundef nonnull align 8 dereferenceable(24) %1) unnamed_addr #0 comdat align 2 {
  %3 = alloca ptr, align 8
  %4 = alloca ptr, align 8
  store ptr %0, ptr %3, align 8
  store ptr %1, ptr %4, align 8
  %5 = load ptr, ptr %3, align 8
  %6 = getelementptr inbounds nuw %"class.llvm::ArrayRef.284", ptr %5, i32 0, i32 0
  %7 = load ptr, ptr %4, align 8
  %8 = call noundef ptr @_ZNKSt6vectorIN4llvm9StringRefESaIS1_EE4dataEv(ptr noundef nonnull align 8 dereferenceable(24) %7) #12
  store ptr %8, ptr %6, align 8
  %9 = getelementptr inbounds nuw %"class.llvm::ArrayRef.284", ptr %5, i32 0, i32 1
  %10 = load ptr, ptr %4, align 8
  %11 = call noundef i64 @_ZNKSt6vectorIN4llvm9StringRefESaIS1_EE4sizeEv(ptr noundef nonnull align 8 dereferenceable(24) %10) #12
  store i64 %11, ptr %9, align 8
  ret void
}

; Function Attrs: mustprogress nounwind uwtable
define linkonce_odr hidden noundef i64 @_ZNK4llvm8ArrayRefINS_9StringRefEE4sizeEv(ptr noundef nonnull align 8 dereferenceable(16) %0) #0 comdat align 2 {
  %2 = alloca ptr, align 8
  store ptr %0, ptr %2, align 8
  %3 = load ptr, ptr %2, align 8
  %4 = getelementptr inbounds nuw %"class.llvm::ArrayRef.284", ptr %3, i32 0, i32 1
  %5 = load i64, ptr %4, align 8
  ret i64 %5
}

; Function Attrs: mustprogress nounwind uwtable
define linkonce_odr hidden { ptr, i64 } @_ZNK4llvm3lto9InputFile21getDependentLibrariesEv(ptr noundef nonnull align 8 dereferenceable(192) %0) #0 comdat align 2 {
  %2 = alloca %"class.llvm::ArrayRef.284", align 8
  %3 = alloca ptr, align 8
  store ptr %0, ptr %3, align 8
  %4 = load ptr, ptr %3, align 8
  %5 = getelementptr inbounds nuw %"class.llvm::lto::InputFile", ptr %4, i32 0, i32 7
  call void @_ZN4llvm8ArrayRefINS_9StringRefEEC2ISaIS1_EEERKSt6vectorIS1_T_E(ptr noundef nonnull align 8 dereferenceable(16) %2, ptr noundef nonnull align 8 dereferenceable(24) %5)
  %6 = load { ptr, i64 }, ptr %2, align 8
  ret { ptr, i64 } %6
}

; Function Attrs: mustprogress nounwind uwtable
define dso_local noundef i64 @_ZN4llvm9LTOModule24getDependentLibraryCountEPNS_3lto9InputFileE(ptr noundef %0) #0 align 2 {
  %2 = alloca ptr, align 8
  %3 = alloca %"class.llvm::ArrayRef.284", align 8
  store ptr %0, ptr %2, align 8
  %4 = load ptr, ptr %2, align 8
  %5 = call { ptr, i64 } @_ZNK4llvm3lto9InputFile21getDependentLibrariesEv(ptr noundef nonnull align 8 dereferenceable(192) %4)
  %6 = getelementptr inbounds nuw { ptr, i64 }, ptr %3, i32 0, i32 0
  %7 = extractvalue { ptr, i64 } %5, 0
  store ptr %7, ptr %6, align 8
  %8 = getelementptr inbounds nuw { ptr, i64 }, ptr %3, i32 0, i32 1
  %9 = extractvalue { ptr, i64 } %5, 1
  store i64 %9, ptr %8, align 8
  %10 = call noundef i64 @_ZNK4llvm8ArrayRefINS_9StringRefEE4sizeEv(ptr noundef nonnull align 8 dereferenceable(16) %3)
  ret i64 %10
}